; Function Attrs: nounwind uwtable
define dso_local noundef ptr @php_XML_ParserCreateNS(ptr noundef readnone captures(none) %0, i8 noundef zeroext %1) local_unnamed_addr #0 {
  %3 = alloca [2 x i8], align 1
  call void @llvm.lifetime.start.p0(i64 2, ptr nonnull %3) #11
  store i8 %1, ptr %3, align 1, !tbaa !46
  %4 = getelementptr inbounds nuw i8, ptr %3, i64 1
  store i8 0, ptr %4, align 1, !tbaa !46
  %5 = tail call noalias ptr @_emalloc_128() #11
  tail call void @llvm.memset.p0.i64(ptr noundef nonnull align 8 dereferenceable(120) %5, i8 0, i64 120, i1 false)
  %6 = tail call ptr @xmlCreatePushParserCtxt(ptr noundef nonnull @php_xml_compat_handlers, ptr noundef nonnull %5, ptr noundef null, i32 noundef 0, ptr noundef null) #11
  %7 = getelementptr inbounds nuw i8, ptr %5, i64 24
  store ptr %6, ptr %7, align 8, !tbaa !4
  %8 = icmp eq ptr %6, null
  br i1 %8, label %9, label %10

9:                                                ; preds = %2
  tail call void @_efree(ptr noundef nonnull %5) #11
  br label %php_XML_ParserCreate_MM.exit

10:                                               ; preds = %2
  %11 = getelementptr inbounds nuw i8, ptr %5, i64 8
  %12 = getelementptr inbounds nuw i8, ptr %6, i64 432
  store i32 0, ptr %12, align 8, !tbaa !12
  %13 = getelementptr inbounds nuw i8, ptr %6, i64 156
  store i32 0, ptr %13, align 4, !tbaa !34
  %14 = getelementptr inbounds nuw i8, ptr %6, i64 420
  store i32 0, ptr %14, align 4, !tbaa !35
  %15 = getelementptr inbounds nuw i8, ptr %6, i64 28
  store i32 0, ptr %15, align 4, !tbaa !36
  %16 = getelementptr inbounds nuw i8, ptr %6, i64 436
  store i32 0, ptr %16, align 4, !tbaa !37
  %17 = getelementptr inbounds nuw i8, ptr %6, i64 328
  store i32 1, ptr %17, align 8, !tbaa !38
  %18 = getelementptr inbounds nuw i8, ptr %6, i64 564
  store i32 0, ptr %18, align 4, !tbaa !39
  %19 = tail call i32 @xmlCtxtUseOptions(ptr noundef nonnull %6, i32 noundef 1048578) #11
  %20 = load ptr, ptr %7, align 8, !tbaa !4
  %21 = getelementptr inbounds nuw i8, ptr %20, i64 24
  store i32 0, ptr %21, align 8, !tbaa !40
  %22 = load ptr, ptr %20, align 8, !tbaa !41
  %23 = getelementptr inbounds nuw i8, ptr %22, i64 216
  %24 = load i32, ptr %23, align 8, !tbaa !42
  %25 = icmp eq i32 %24, -554844497
  tail call void @llvm.assume(i1 %25)
  store i32 1, ptr %5, align 8, !tbaa !44
  %26 = call ptr @xmlStrdup(ptr noundef nonnull %3) #11
  store ptr %26, ptr %11, align 8, !tbaa !45
  br label %php_XML_ParserCreate_MM.exit

php_XML_ParserCreate_MM.exit:                     ; preds = %9, %10
  %.0.i = phi ptr [ null, %9 ], [ %5, %10 ]
  call void @llvm.lifetime.end.p0(i64 2, ptr nonnull %3) #11
  ret ptr %.0.i
}